; Function Attrs: mustprogress nounwind uwtable
define internal fastcc void @_ZN4ncnnL22convolutiondepthwise1dERKNS_3MatERS0_S2_S2_iiiiiS2_RKNS_6OptionE(ptr noundef nonnull align 8 dereferenceable(72) %0, ptr noundef nonnull align 8 dereferenceable(72) %1, ptr noundef nonnull align 8 dereferenceable(72) %2, ptr noundef nonnull align 8 dereferenceable(72) %3, i32 noundef %4, i32 noundef %5, i32 noundef %6, i32 noundef %7, i32 noundef %8, ptr noundef nonnull align 8 dereferenceable(72) %9, ptr noundef nonnull readonly align 8 captures(none) dereferenceable(64) %10) unnamed_addr #8 {
  %12 = alloca i32, align 4
  %13 = alloca i32, align 4
  %14 = alloca i32, align 4
  %15 = alloca i32, align 4
  %16 = alloca i32, align 4
  %17 = alloca i32, align 4
  %18 = alloca i32, align 4
  %19 = alloca i32, align 4
  %20 = alloca i32, align 4
  %21 = tail call i32 @__kmpc_global_thread_num(ptr nonnull @2)
  store i32 %4, ptr %12, align 4, !tbaa !58
  store i32 %5, ptr %13, align 4, !tbaa !58
  store i32 %6, ptr %14, align 4, !tbaa !58
  store i32 %7, ptr %15, align 4, !tbaa !58
  store i32 %8, ptr %16, align 4, !tbaa !58
  %22 = getelementptr inbounds nuw i8, ptr %0, i64 48
  %23 = load i32, ptr %22, align 8, !tbaa !49
  call void @llvm.lifetime.start.p0(i64 4, ptr nonnull %17) #10
  %24 = getelementptr inbounds nuw i8, ptr %1, i64 44
  %25 = load i32, ptr %24, align 4, !tbaa !48
  store i32 %25, ptr %17, align 4, !tbaa !58
  %26 = getelementptr inbounds nuw i8, ptr %1, i64 48
  %27 = load i32, ptr %26, align 8, !tbaa !49
  call void @llvm.lifetime.start.p0(i64 4, ptr nonnull %18) #10
  %28 = load ptr, ptr %3, align 8, !tbaa !16
  %29 = icmp eq ptr %28, null
  br i1 %29, label %_ZNK4ncnn3Mat5emptyEv.exit, label %30

30:                                               ; preds = %11
  %31 = getelementptr inbounds nuw i8, ptr %3, i64 64
  %32 = load i64, ptr %31, align 8, !tbaa !17
  %33 = getelementptr inbounds nuw i8, ptr %3, i64 56
  %34 = load i32, ptr %33, align 8, !tbaa !51
  %35 = sext i32 %34 to i64
  %36 = mul i64 %32, %35
  %37 = icmp ne i64 %36, 0
  %38 = zext i1 %37 to i32
  br label %_ZNK4ncnn3Mat5emptyEv.exit

_ZNK4ncnn3Mat5emptyEv.exit:                       ; preds = %11, %30
  %not. = phi i32 [ 0, %11 ], [ %38, %30 ]
  store i32 %not., ptr %18, align 4, !tbaa !58
  %39 = icmp eq i32 %23, %7
  %40 = icmp eq i32 %7, %27
  %or.cond = select i1 %39, i1 %40, i1 false
  br i1 %or.cond, label %41, label %44

41:                                               ; preds = %_ZNK4ncnn3Mat5emptyEv.exit
  %42 = getelementptr inbounds nuw i8, ptr %10, i64 4
  %43 = load i32, ptr %42, align 4, !tbaa !59
  tail call void @__kmpc_push_num_threads(ptr nonnull @2, i32 %21, i32 %43)
  call void (ptr, i32, ptr, ...) @__kmpc_fork_call(ptr nonnull @2, i32 12, ptr nonnull @_ZN4ncnnL22convolutiondepthwise1dERKNS_3MatERS0_S2_S2_iiiiiS2_RKNS_6OptionE.omp_outlined, ptr nonnull %15, ptr nonnull %1, ptr nonnull %2, ptr nonnull %12, ptr nonnull %17, ptr nonnull %18, ptr nonnull %3, ptr nonnull %0, ptr nonnull %13, ptr nonnull %14, ptr nonnull %16, ptr nonnull %9)
  br label %49

44:                                               ; preds = %_ZNK4ncnn3Mat5emptyEv.exit
  call void @llvm.lifetime.start.p0(i64 4, ptr nonnull %19) #10
  %45 = sdiv i32 %23, %7
  store i32 %45, ptr %19, align 4, !tbaa !58
  call void @llvm.lifetime.start.p0(i64 4, ptr nonnull %20) #10
  %46 = sdiv i32 %27, %7
  store i32 %46, ptr %20, align 4, !tbaa !58
  %47 = getelementptr inbounds nuw i8, ptr %10, i64 4
  %48 = load i32, ptr %47, align 4, !tbaa !59
  tail call void @__kmpc_push_num_threads(ptr nonnull @2, i32 %21, i32 %48)
  call void (ptr, i32, ptr, ...) @__kmpc_fork_call(ptr nonnull @2, i32 14, ptr nonnull @_ZN4ncnnL22convolutiondepthwise1dERKNS_3MatERS0_S2_S2_iiiiiS2_RKNS_6OptionE.omp_outlined.1, ptr nonnull %15, ptr nonnull %20, ptr nonnull %1, ptr nonnull %2, ptr nonnull %12, ptr nonnull %19, ptr nonnull %17, ptr nonnull %18, ptr nonnull %3, ptr nonnull %0, ptr nonnull %13, ptr nonnull %14, ptr nonnull %16, ptr nonnull %9)
  call void @llvm.lifetime.end.p0(i64 4, ptr nonnull %20) #10
  call void @llvm.lifetime.end.p0(i64 4, ptr nonnull %19) #10
  br label %49

49:                                               ; preds = %44, %41
  call void @llvm.lifetime.end.p0(i64 4, ptr nonnull %18) #10
  call void @llvm.lifetime.end.p0(i64 4, ptr nonnull %17) #10
  ret void
}